target datalayout = "e-m:e-p270:32:32-p271:32:32-p272:64:64-i64:64-i128:128-f80:128-n8:16:32:64-S128"
target triple = "x86_64-pc-linux-gnu"

%struct.Sec_MtrStatus_t_ = type { i32, i32, i32, i32, i32, i32, i32 }
%struct.Aig_Man_t_ = type { ptr, ptr, ptr, ptr, ptr, ptr, ptr, %struct.Aig_Obj_t_, i32, i32, i32, i32, i32, i32, [7 x i32], i32, ptr, i32, ptr, i32, ptr, i32, i32, i32, ptr, i32, i32, i32, i32, i32, ptr, ptr, i32, ptr, ptr, i32, ptr, ptr, i32, i32, i32, ptr, ptr, ptr, ptr, ptr, ptr, ptr, ptr, ptr, ptr, ptr, ptr, ptr, ptr, i32, ptr, ptr, ptr, ptr, i32, i64, i64, i64, ptr, ptr }
%struct.Aig_Obj_t_ = type { %union.anon, ptr, ptr, i64, i32, i32, %union.anon.0 }
%union.anon = type { ptr }
%union.anon.0 = type { ptr }
%struct.Vec_Ptr_t_ = type { i32, i32, ptr }

; Function Attrs: inlinehint nounwind uwtable
define internal i32 @Aig_ObjCioId(ptr noundef %0) #3 {
  %2 = alloca ptr, align 8
  store ptr %0, ptr %2, align 8, !tbaa !28
  %3 = load ptr, ptr %2, align 8, !tbaa !28
  %4 = getelementptr inbounds nuw %struct.Aig_Obj_t_, ptr %3, i32 0, i32 0
  %5 = load i32, ptr %4, align 8, !tbaa !43
  ret i32 %5
}

; Function Attrs: inlinehint nounwind uwtable
define internal i32 @Aig_ObjIsCi(ptr noundef %0) #3 {
  %2 = alloca ptr, align 8
  store ptr %0, ptr %2, align 8, !tbaa !28
  %3 = load ptr, ptr %2, align 8, !tbaa !28
  %4 = getelementptr inbounds nuw %struct.Aig_Obj_t_, ptr %3, i32 0, i32 3
  %5 = load i64, ptr %4, align 8
  %6 = and i64 %5, 7
  %7 = trunc i64 %6 to i32
  %8 = icmp eq i32 %7, 2
  %9 = zext i1 %8 to i32
  ret i32 %9
}

; Function Attrs: inlinehint nounwind uwtable
define internal ptr @Aig_Not(ptr noundef %0) #3 {
  %2 = alloca ptr, align 8
  store ptr %0, ptr %2, align 8, !tbaa !28
  %3 = load ptr, ptr %2, align 8, !tbaa !28
  %4 = ptrtoint ptr %3 to i64
  %5 = xor i64 %4, 1
  %6 = inttoptr i64 %5 to ptr
  ret ptr %6
}

; Function Attrs: inlinehint nounwind uwtable
define internal i32 @Aig_IsComplement(ptr noundef %0) #3 {
  %2 = alloca ptr, align 8
  store ptr %0, ptr %2, align 8, !tbaa !28
  %3 = load ptr, ptr %2, align 8, !tbaa !28
  %4 = ptrtoint ptr %3 to i64
  %5 = and i64 %4, 1
  %6 = trunc i64 %5 to i32
  ret i32 %6
}

; Function Attrs: inlinehint nounwind uwtable
define internal i32 @Saig_ObjIsPi(ptr noundef %0, ptr noundef %1) #3 {
  %3 = alloca ptr, align 8
  %4 = alloca ptr, align 8
  store ptr %0, ptr %3, align 8, !tbaa !3
  store ptr %1, ptr %4, align 8, !tbaa !28
  %5 = load ptr, ptr %4, align 8, !tbaa !28
  %6 = call i32 @Aig_ObjIsCi(ptr noundef %5)
  %7 = icmp ne i32 %6, 0
  br i1 %7, label %8, label %14

8:                                                ; preds = %2
  %9 = load ptr, ptr %4, align 8, !tbaa !28
  %10 = call i32 @Aig_ObjCioId(ptr noundef %9)
  %11 = load ptr, ptr %3, align 8, !tbaa !3
  %12 = call i32 @Saig_ManPiNum(ptr noundef %11)
  %13 = icmp slt i32 %10, %12
  br label %14

14:                                               ; preds = %8, %2
  %15 = phi i1 [ false, %2 ], [ %13, %8 ]
  %16 = zext i1 %15 to i32
  ret i32 %16
}

; Function Attrs: inlinehint nounwind uwtable
define internal ptr @Aig_Regular(ptr noundef %0) #3 {
  %2 = alloca ptr, align 8
  store ptr %0, ptr %2, align 8, !tbaa !28
  %3 = load ptr, ptr %2, align 8, !tbaa !28
  %4 = ptrtoint ptr %3 to i64
  %5 = and i64 %4, -2
  %6 = inttoptr i64 %5 to ptr
  ret ptr %6
}

; Function Attrs: inlinehint nounwind uwtable
define internal ptr @Aig_ManConst1(ptr noundef %0) #3 {
  %2 = alloca ptr, align 8
  store ptr %0, ptr %2, align 8, !tbaa !3
  %3 = load ptr, ptr %2, align 8, !tbaa !3
  %4 = getelementptr inbounds nuw %struct.Aig_Man_t_, ptr %3, i32 0, i32 6
  %5 = load ptr, ptr %4, align 8, !tbaa !41
  ret ptr %5
}

; Function Attrs: inlinehint nounwind uwtable
define internal ptr @Aig_ManConst0(ptr noundef %0) #3 {
  %2 = alloca ptr, align 8
  store ptr %0, ptr %2, align 8, !tbaa !3
  %3 = load ptr, ptr %2, align 8, !tbaa !3
  %4 = getelementptr inbounds nuw %struct.Aig_Man_t_, ptr %3, i32 0, i32 6
  %5 = load ptr, ptr %4, align 8, !tbaa !41
  %6 = call ptr @Aig_Not(ptr noundef %5)
  ret ptr %6
}

; Function Attrs: inlinehint nounwind uwtable
define internal ptr @Aig_ObjChild0(ptr noundef %0) #3 {
  %2 = alloca ptr, align 8
  store ptr %0, ptr %2, align 8, !tbaa !28
  %3 = load ptr, ptr %2, align 8, !tbaa !28
  %4 = getelementptr inbounds nuw %struct.Aig_Obj_t_, ptr %3, i32 0, i32 1
  %5 = load ptr, ptr %4, align 8, !tbaa !40
  ret ptr %5
}

; Function Attrs: inlinehint nounwind uwtable
define internal ptr @Vec_PtrEntry(ptr noundef %0, i32 noundef %1) #3 {
  %3 = alloca ptr, align 8
  %4 = alloca i32, align 4
  store ptr %0, ptr %3, align 8, !tbaa !36
  store i32 %1, ptr %4, align 4, !tbaa !14
  %5 = load ptr, ptr %3, align 8, !tbaa !36
  %6 = getelementptr inbounds nuw %struct.Vec_Ptr_t_, ptr %5, i32 0, i32 2
  %7 = load ptr, ptr %6, align 8, !tbaa !37
  %8 = load i32, ptr %4, align 4, !tbaa !14
  %9 = sext i32 %8 to i64
  %10 = getelementptr inbounds ptr, ptr %7, i64 %9
  %11 = load ptr, ptr %10, align 8, !tbaa !39
  ret ptr %11
}

; Function Attrs: inlinehint nounwind uwtable
define internal i32 @Saig_ManPoNum(ptr noundef %0) #3 {
  %2 = alloca ptr, align 8
  store ptr %0, ptr %2, align 8, !tbaa !3
  %3 = load ptr, ptr %2, align 8, !tbaa !3
  %4 = getelementptr inbounds nuw %struct.Aig_Man_t_, ptr %3, i32 0, i32 10
  %5 = load i32, ptr %4, align 8, !tbaa !35
  ret i32 %5
}

; Function Attrs: inlinehint nounwind uwtable
define internal i32 @Aig_ManNodeNum(ptr noundef %0) #3 {
  %2 = alloca ptr, align 8
  store ptr %0, ptr %2, align 8, !tbaa !3
  %3 = load ptr, ptr %2, align 8, !tbaa !3
  %4 = getelementptr inbounds nuw %struct.Aig_Man_t_, ptr %3, i32 0, i32 14
  %5 = getelementptr inbounds [7 x i32], ptr %4, i64 0, i64 5
  %6 = load i32, ptr %5, align 4, !tbaa !14
  %7 = load ptr, ptr %2, align 8, !tbaa !3
  %8 = getelementptr inbounds nuw %struct.Aig_Man_t_, ptr %7, i32 0, i32 14
  %9 = getelementptr inbounds [7 x i32], ptr %8, i64 0, i64 6
  %10 = load i32, ptr %9, align 8, !tbaa !14
  %11 = add nsw i32 %6, %10
  ret i32 %11
}

; Function Attrs: inlinehint nounwind uwtable
define internal i32 @Saig_ManPiNum(ptr noundef %0) #3 {
  %2 = alloca ptr, align 8
  store ptr %0, ptr %2, align 8, !tbaa !3
  %3 = load ptr, ptr %2, align 8, !tbaa !3
  %4 = getelementptr inbounds nuw %struct.Aig_Man_t_, ptr %3, i32 0, i32 9
  %5 = load i32, ptr %4, align 4, !tbaa !34
  ret i32 %5
}

; Function Attrs: nounwind uwtable
define void @Sec_MiterStatus(ptr dead_on_unwind noalias writable sret(%struct.Sec_MtrStatus_t_) align 4 %0, ptr noundef %1) #0 {
  %3 = alloca ptr, align 8
  %4 = alloca ptr, align 8
  %5 = alloca ptr, align 8
  %6 = alloca i32, align 4
  store ptr %1, ptr %3, align 8, !tbaa !3
  call void @llvm.lifetime.start.p0(i64 8, ptr %4) #10
  call void @llvm.lifetime.start.p0(i64 8, ptr %5) #10
  call void @llvm.lifetime.start.p0(i64 4, ptr %6) #10
  call void @llvm.memset.p0.i64(ptr align 4 %0, i8 0, i64 28, i1 false)
  %7 = getelementptr inbounds nuw %struct.Sec_MtrStatus_t_, ptr %0, i32 0, i32 6
  store i32 -1, ptr %7, align 4, !tbaa !8
  %8 = load ptr, ptr %3, align 8, !tbaa !3
  %9 = call i32 @Saig_ManPiNum(ptr noundef %8)
  %10 = getelementptr inbounds nuw %struct.Sec_MtrStatus_t_, ptr %0, i32 0, i32 0
  store i32 %9, ptr %10, align 4, !tbaa !11
  %11 = load ptr, ptr %3, align 8, !tbaa !3
  %12 = call i32 @Aig_ManNodeNum(ptr noundef %11)
  %13 = getelementptr inbounds nuw %struct.Sec_MtrStatus_t_, ptr %0, i32 0, i32 1
  store i32 %12, ptr %13, align 4, !tbaa !12
  %14 = load ptr, ptr %3, align 8, !tbaa !3
  %15 = call i32 @Saig_ManPoNum(ptr noundef %14)
  %16 = getelementptr inbounds nuw %struct.Sec_MtrStatus_t_, ptr %0, i32 0, i32 2
  store i32 %15, ptr %16, align 4, !tbaa !13
  store i32 0, ptr %6, align 4, !tbaa !14
  br label %17

17:                                               ; preds = %104, %2
  %18 = load i32, ptr %6, align 4, !tbaa !14
  %19 = load ptr, ptr %3, align 8, !tbaa !3
  %20 = call i32 @Saig_ManPoNum(ptr noundef %19)
  %21 = icmp slt i32 %18, %20
  br i1 %21, label %22, label %28

22:                                               ; preds = %17
  %23 = load ptr, ptr %3, align 8, !tbaa !3
  %24 = getelementptr inbounds nuw %struct.Aig_Man_t_, ptr %23, i32 0, i32 3
  %25 = load ptr, ptr %24, align 8, !tbaa !15
  %26 = load i32, ptr %6, align 4, !tbaa !14
  %27 = call ptr @Vec_PtrEntry(ptr noundef %25, i32 noundef %26)
  store ptr %27, ptr %4, align 8, !tbaa !28
  br label %28

28:                                               ; preds = %22, %17
  %29 = phi i1 [ false, %17 ], [ true, %22 ]
  br i1 %29, label %30, label %107

30:                                               ; preds = %28
  %31 = load ptr, ptr %4, align 8, !tbaa !28
  %32 = call ptr @Aig_ObjChild0(ptr noundef %31)
  store ptr %32, ptr %5, align 8, !tbaa !28
  %33 = load ptr, ptr %5, align 8, !tbaa !28
  %34 = load ptr, ptr %3, align 8, !tbaa !3
  %35 = call ptr @Aig_ManConst0(ptr noundef %34)
  %36 = icmp eq ptr %33, %35
  br i1 %36, label %37, label %41

37:                                               ; preds = %30
  %38 = getelementptr inbounds nuw %struct.Sec_MtrStatus_t_, ptr %0, i32 0, i32 3
  %39 = load i32, ptr %38, align 4, !tbaa !29
  %40 = add nsw i32 %39, 1
  store i32 %40, ptr %38, align 4, !tbaa !29
  br label %103

41:                                               ; preds = %30
  %42 = load ptr, ptr %5, align 8, !tbaa !28
  %43 = load ptr, ptr %3, align 8, !tbaa !3
  %44 = call ptr @Aig_ManConst1(ptr noundef %43)
  %45 = icmp eq ptr %42, %44
  br i1 %45, label %46, label %57

46:                                               ; preds = %41
  %47 = getelementptr inbounds nuw %struct.Sec_MtrStatus_t_, ptr %0, i32 0, i32 4
  %48 = load i32, ptr %47, align 4, !tbaa !30
  %49 = add nsw i32 %48, 1
  store i32 %49, ptr %47, align 4, !tbaa !30
  %50 = getelementptr inbounds nuw %struct.Sec_MtrStatus_t_, ptr %0, i32 0, i32 6
  %51 = load i32, ptr %50, align 4, !tbaa !8
  %52 = icmp eq i32 %51, -1
  br i1 %52, label %53, label %56

53:                                               ; preds = %46
  %54 = load i32, ptr %6, align 4, !tbaa !14
  %55 = getelementptr inbounds nuw %struct.Sec_MtrStatus_t_, ptr %0, i32 0, i32 6
  store i32 %54, ptr %55, align 4, !tbaa !8
  br label %56

56:                                               ; preds = %53, %46
  br label %102

57:                                               ; preds = %41
  %58 = load ptr, ptr %3, align 8, !tbaa !3
  %59 = load ptr, ptr %5, align 8, !tbaa !28
  %60 = call ptr @Aig_Regular(ptr noundef %59)
  %61 = call i32 @Saig_ObjIsPi(ptr noundef %58, ptr noundef %60)
  %62 = icmp ne i32 %61, 0
  br i1 %62, label %63, label %74

63:                                               ; preds = %57
  %64 = getelementptr inbounds nuw %struct.Sec_MtrStatus_t_, ptr %0, i32 0, i32 4
  %65 = load i32, ptr %64, align 4, !tbaa !30
  %66 = add nsw i32 %65, 1
  store i32 %66, ptr %64, align 4, !tbaa !30
  %67 = getelementptr inbounds nuw %struct.Sec_MtrStatus_t_, ptr %0, i32 0, i32 6
  %68 = load i32, ptr %67, align 4, !tbaa !8
  %69 = icmp eq i32 %68, -1
  br i1 %69, label %70, label %73

70:                                               ; preds = %63
  %71 = load i32, ptr %6, align 4, !tbaa !14
  %72 = getelementptr inbounds nuw %struct.Sec_MtrStatus_t_, ptr %0, i32 0, i32 6
  store i32 %71, ptr %72, align 4, !tbaa !8
  br label %73

73:                                               ; preds = %70, %63
  br label %101

74:                                               ; preds = %57
  %75 = load ptr, ptr %5, align 8, !tbaa !28
  %76 = call ptr @Aig_Regular(ptr noundef %75)
  %77 = getelementptr inbounds nuw %struct.Aig_Obj_t_, ptr %76, i32 0, i32 3
  %78 = load i64, ptr %77, align 8
  %79 = lshr i64 %78, 3
  %80 = and i64 %79, 1
  %81 = trunc i64 %80 to i32
  %82 = load ptr, ptr %5, align 8, !tbaa !28
  %83 = call i32 @Aig_IsComplement(ptr noundef %82)
  %84 = icmp ne i32 %81, %83
  br i1 %84, label %85, label %96

85:                                               ; preds = %74
  %86 = getelementptr inbounds nuw %struct.Sec_MtrStatus_t_, ptr %0, i32 0, i32 4
  %87 = load i32, ptr %86, align 4, !tbaa !30
  %88 = add nsw i32 %87, 1
  store i32 %88, ptr %86, align 4, !tbaa !30
  %89 = getelementptr inbounds nuw %struct.Sec_MtrStatus_t_, ptr %0, i32 0, i32 6
  %90 = load i32, ptr %89, align 4, !tbaa !8
  %91 = icmp eq i32 %90, -1
  br i1 %91, label %92, label %95

92:                                               ; preds = %85
  %93 = load i32, ptr %6, align 4, !tbaa !14
  %94 = getelementptr inbounds nuw %struct.Sec_MtrStatus_t_, ptr %0, i32 0, i32 6
  store i32 %93, ptr %94, align 4, !tbaa !8
  br label %95

95:                                               ; preds = %92, %85
  br label %100

96:                                               ; preds = %74
  %97 = getelementptr inbounds nuw %struct.Sec_MtrStatus_t_, ptr %0, i32 0, i32 5
  %98 = load i32, ptr %97, align 4, !tbaa !31
  %99 = add nsw i32 %98, 1
  store i32 %99, ptr %97, align 4, !tbaa !31
  br label %100

100:                                              ; preds = %96, %95
  br label %101

101:                                              ; preds = %100, %73
  br label %102

102:                                              ; preds = %101, %56
  br label %103

103:                                              ; preds = %102, %37
  br label %104

104:                                              ; preds = %103
  %105 = load i32, ptr %6, align 4, !tbaa !14
  %106 = add nsw i32 %105, 1
  store i32 %106, ptr %6, align 4, !tbaa !14
  br label %17, !llvm.loop !32

107:                                              ; preds = %28
  call void @llvm.lifetime.end.p0(i64 4, ptr %6) #10
  call void @llvm.lifetime.end.p0(i64 8, ptr %5) #10
  call void @llvm.lifetime.end.p0(i64 8, ptr %4) #10
  ret void
}