; Function Attrs: nofree norecurse nosync nounwind memory(read, argmem: readwrite, inaccessiblemem: none) uwtable
define void @Sec_MiterStatus(ptr dead_on_unwind noalias writable writeonly sret(%struct.Sec_MtrStatus_t_) align 4 captures(none) initializes((0, 24)) %0, ptr noundef readonly captures(none) %1) local_unnamed_addr #0 {
  %3 = getelementptr inbounds nuw i8, ptr %0, i64 12
  tail call void @llvm.memset.p0.i64(ptr noundef nonnull align 4 dereferenceable(28) %3, i8 0, i64 12, i1 false)
  %4 = getelementptr i8, ptr %1, i64 108
  %.val = load i32, ptr %4, align 4, !tbaa !3
  store i32 %.val, ptr %0, align 4, !tbaa !21
  %5 = getelementptr i8, ptr %1, i64 148
  %.val23 = load i32, ptr %5, align 4, !tbaa !23
  %6 = getelementptr i8, ptr %1, i64 152
  %.val24 = load i32, ptr %6, align 8, !tbaa !23
  %7 = add nsw i32 %.val24, %.val23
  %8 = getelementptr inbounds nuw i8, ptr %0, i64 4
  store i32 %7, ptr %8, align 4, !tbaa !24
  %9 = getelementptr i8, ptr %1, i64 112
  %.val25 = load i32, ptr %9, align 8, !tbaa !25
  %10 = getelementptr inbounds nuw i8, ptr %0, i64 8
  store i32 %.val25, ptr %10, align 4, !tbaa !26
  %11 = icmp sgt i32 %.val25, 0
  br i1 %11, label %.lr.ph, label %.critedge

.lr.ph:                                           ; preds = %2
  %12 = getelementptr inbounds nuw i8, ptr %1, i64 24
  %13 = load ptr, ptr %12, align 8, !tbaa !27
  %14 = getelementptr i8, ptr %13, i64 8
  %.val27 = load ptr, ptr %14, align 8, !tbaa !28
  %15 = getelementptr i8, ptr %1, i64 48
  %.val29 = load ptr, ptr %15, align 8, !tbaa !30
  %16 = ptrtoint ptr %.val29 to i64
  %17 = xor i64 %16, 1
  %18 = inttoptr i64 %17 to ptr
  %19 = getelementptr inbounds nuw i8, ptr %0, i64 16
  %20 = getelementptr inbounds nuw i8, ptr %0, i64 20
  %21 = getelementptr inbounds nuw i8, ptr %0, i64 12
  %wide.trip.count = zext nneg i32 %.val25 to i64
  br label %22

22:                                               ; preds = %.lr.ph, %60
  %indvars.iv = phi i64 [ 0, %.lr.ph ], [ %indvars.iv.next, %60 ]
  %23 = phi i32 [ 0, %.lr.ph ], [ %61, %60 ]
  %24 = phi i32 [ 0, %.lr.ph ], [ %62, %60 ]
  %25 = phi i32 [ 0, %.lr.ph ], [ %63, %60 ]
  %26 = phi i32 [ -1, %.lr.ph ], [ %64, %60 ]
  %27 = getelementptr inbounds nuw ptr, ptr %.val27, i64 %indvars.iv
  %28 = load ptr, ptr %27, align 8, !tbaa !31
  %29 = getelementptr i8, ptr %28, i64 8
  %.val28 = load ptr, ptr %29, align 8, !tbaa !32
  %30 = icmp eq ptr %.val28, %18
  br i1 %30, label %31, label %33

31:                                               ; preds = %22
  %32 = add nsw i32 %23, 1
  br label %60

33:                                               ; preds = %22
  %34 = icmp eq ptr %.val28, %.val29
  br i1 %34, label %35, label %39

35:                                               ; preds = %33
  %36 = add nsw i32 %25, 1
  %37 = icmp eq i32 %26, -1
  %38 = trunc nuw nsw i64 %indvars.iv to i32
  %spec.store.select = select i1 %37, i32 %38, i32 %26
  br label %60

39:                                               ; preds = %33
  %40 = ptrtoint ptr %.val28 to i64
  %41 = and i64 %40, -2
  %42 = inttoptr i64 %41 to ptr
  %43 = getelementptr i8, ptr %42, i64 24
  %.val3.i = load i64, ptr %43, align 8
  %44 = and i64 %.val3.i, 7
  %.not.i = icmp eq i64 %44, 2
  br i1 %.not.i, label %Saig_ObjIsPi.exit, label %Saig_ObjIsPi.exit.thread

Saig_ObjIsPi.exit:                                ; preds = %39
  %.val4.i = load i32, ptr %42, align 8, !tbaa !33
  %.not = icmp slt i32 %.val4.i, %.val
  br i1 %.not, label %45, label %Saig_ObjIsPi.exit.thread

45:                                               ; preds = %Saig_ObjIsPi.exit
  %46 = add nsw i32 %25, 1
  %47 = icmp eq i32 %26, -1
  %48 = trunc nuw nsw i64 %indvars.iv to i32
  %spec.store.select21 = select i1 %47, i32 %48, i32 %26
  br label %60

Saig_ObjIsPi.exit.thread:                         ; preds = %39, %Saig_ObjIsPi.exit
  %49 = trunc i64 %.val3.i to i32
  %50 = lshr i32 %49, 3
  %51 = trunc i64 %40 to i32
  %52 = xor i32 %50, %51
  %53 = and i32 %52, 1
  %.not20 = icmp eq i32 %53, 0
  br i1 %.not20, label %58, label %54

54:                                               ; preds = %Saig_ObjIsPi.exit.thread
  %55 = add nsw i32 %25, 1
  %56 = icmp eq i32 %26, -1
  %57 = trunc nuw nsw i64 %indvars.iv to i32
  %spec.store.select22 = select i1 %56, i32 %57, i32 %26
  br label %60

58:                                               ; preds = %Saig_ObjIsPi.exit.thread
  %59 = add nsw i32 %24, 1
  br label %60

60:                                               ; preds = %54, %45, %35, %31, %58
  %61 = phi i32 [ %23, %54 ], [ %23, %45 ], [ %23, %35 ], [ %32, %31 ], [ %23, %58 ]
  %62 = phi i32 [ %24, %54 ], [ %24, %45 ], [ %24, %35 ], [ %24, %31 ], [ %59, %58 ]
  %63 = phi i32 [ %55, %54 ], [ %46, %45 ], [ %36, %35 ], [ %25, %31 ], [ %25, %58 ]
  %64 = phi i32 [ %spec.store.select22, %54 ], [ %spec.store.select21, %45 ], [ %spec.store.select, %35 ], [ %26, %31 ], [ %26, %58 ]
  %indvars.iv.next = add nuw nsw i64 %indvars.iv, 1
  %exitcond.not = icmp eq i64 %indvars.iv.next, %wide.trip.count
  br i1 %exitcond.not, label %..critedge_crit_edge, label %22, !llvm.loop !34

..critedge_crit_edge:                             ; preds = %60
  store i32 %63, ptr %19, align 4
  store i32 %62, ptr %20, align 4
  store i32 %61, ptr %21, align 4
  br label %.critedge

.critedge:                                        ; preds = %..critedge_crit_edge, %2
  %.lcssa = phi i32 [ %64, %..critedge_crit_edge ], [ -1, %2 ]
  %65 = getelementptr inbounds nuw i8, ptr %0, i64 24
  store i32 %.lcssa, ptr %65, align 4
  ret void
}